#include <math.h>
#include <stdio.h>
#include <stdlib.h>
#include <string.h>

void main()
{
	int n,i,l;
	char s[50][50],*p[50];
	scanf("%d",&n);
	for(i=0;i<n;i++)
	{
		scanf("%s",s[i]);
		l=strlen(s[i]);
		p[i]=s[i]+l-1;
		if(*p[i]=='r')
			*(p[i]-1)='\0';
		if(*p[i]=='y')
			*(p[i]-1)='\0';
		if(*p[i]=='g')
			*(p[i]-2)='\0';
	}
	for(i=0;i<n;i++)
		printf("%s\n",s[i]);
}
		
